target datalayout = "e-m:e-p270:32:32-p271:32:32-p272:64:64-i64:64-i128:128-f80:128-n8:16:32:64-S128"
target triple = "x86_64-pc-linux-gnu"

%struct._object = type { %union.anon, ptr }
%union.anon = type { i64 }
%struct.HMACobject = type { %struct._object, ptr, i8, %struct.PyMutex }
%struct.PyMutex = type { i8 }

@PyExc_ValueError = external global ptr, align 8

; Function Attrs: inlinehint nounwind uwtable
define internal i32 @_Py_atomic_compare_exchange_uint8(ptr noundef %0, ptr noundef %1, i8 noundef zeroext %2) #4 {
  %4 = alloca ptr, align 8
  %5 = alloca ptr, align 8
  %6 = alloca i8, align 1
  %7 = alloca i8, align 1
  %8 = alloca i8, align 1
  store ptr %0, ptr %4, align 8, !tbaa !21
  store ptr %1, ptr %5, align 8, !tbaa !21
  store i8 %2, ptr %6, align 1, !tbaa !28
  %9 = load ptr, ptr %4, align 8, !tbaa !21
  %10 = load ptr, ptr %5, align 8, !tbaa !21
  %11 = load i8, ptr %6, align 1, !tbaa !28
  store i8 %11, ptr %7, align 1, !tbaa !28
  %12 = load i8, ptr %10, align 1
  %13 = load i8, ptr %7, align 1
  %14 = cmpxchg ptr %9, i8 %12, i8 %13 seq_cst seq_cst, align 1
  %15 = extractvalue { i8, i1 } %14, 0
  %16 = extractvalue { i8, i1 } %14, 1
  br i1 %16, label %18, label %17

17:                                               ; preds = %3
  store i8 %15, ptr %10, align 1
  br label %18

18:                                               ; preds = %17, %3
  %19 = zext i1 %16 to i8
  store i8 %19, ptr %8, align 1, !tbaa !53
  %20 = load i8, ptr %8, align 1, !tbaa !53, !range !38, !noundef !39
  %21 = trunc i8 %20 to i1
  %22 = zext i1 %21 to i32
  ret i32 %22
}

; Function Attrs: inlinehint nounwind uwtable
define internal void @_PyMutex_Unlock(ptr noundef %0) #4 {
  %2 = alloca ptr, align 8
  %3 = alloca i8, align 1
  store ptr %0, ptr %2, align 8, !tbaa !51
  call void @llvm.lifetime.start.p0(i64 1, ptr %3) #9
  store i8 1, ptr %3, align 1, !tbaa !28
  %4 = load ptr, ptr %2, align 8, !tbaa !51
  %5 = getelementptr inbounds nuw %struct.PyMutex, ptr %4, i32 0, i32 0
  %6 = call i32 @_Py_atomic_compare_exchange_uint8(ptr noundef %5, ptr noundef %3, i8 noundef zeroext 0)
  %7 = icmp ne i32 %6, 0
  br i1 %7, label %10, label %8

8:                                                ; preds = %1
  %9 = load ptr, ptr %2, align 8, !tbaa !51
  call void @PyMutex_Unlock(ptr noundef %9)
  br label %10

10:                                               ; preds = %8, %1
  call void @llvm.lifetime.end.p0(i64 1, ptr %3) #9
  ret void
}

; Function Attrs: inlinehint nounwind uwtable
define internal void @_PyMutex_Lock(ptr noundef %0) #4 {
  %2 = alloca ptr, align 8
  %3 = alloca i8, align 1
  store ptr %0, ptr %2, align 8, !tbaa !51
  call void @llvm.lifetime.start.p0(i64 1, ptr %3) #9
  store i8 0, ptr %3, align 1, !tbaa !28
  %4 = load ptr, ptr %2, align 8, !tbaa !51
  %5 = getelementptr inbounds nuw %struct.PyMutex, ptr %4, i32 0, i32 0
  %6 = call i32 @_Py_atomic_compare_exchange_uint8(ptr noundef %5, ptr noundef %3, i8 noundef zeroext 1)
  %7 = icmp ne i32 %6, 0
  br i1 %7, label %10, label %8

8:                                                ; preds = %1
  %9 = load ptr, ptr %2, align 8, !tbaa !51
  call void @PyMutex_Lock(ptr noundef %9)
  br label %10

10:                                               ; preds = %8, %1
  call void @llvm.lifetime.end.p0(i64 1, ptr %3) #9
  ret void
}

; Function Attrs: nounwind uwtable
define internal i32 @locked_HMAC_CTX_copy(ptr noundef %0, ptr noundef %1) #0 {
  %3 = alloca ptr, align 8
  %4 = alloca ptr, align 8
  %5 = alloca i32, align 4
  store ptr %0, ptr %3, align 8, !tbaa !54
  store ptr %1, ptr %4, align 8, !tbaa !3
  call void @llvm.lifetime.start.p0(i64 4, ptr %5) #9
  %6 = load ptr, ptr %4, align 8, !tbaa !3
  %7 = getelementptr inbounds nuw %struct.HMACobject, ptr %6, i32 0, i32 2
  %8 = load i8, ptr %7, align 8, !tbaa !37, !range !38, !noundef !39
  %9 = trunc i8 %8 to i1
  br i1 %9, label %10, label %13

10:                                               ; preds = %2
  %11 = load ptr, ptr %4, align 8, !tbaa !3
  %12 = getelementptr inbounds nuw %struct.HMACobject, ptr %11, i32 0, i32 3
  call void @_PyMutex_Lock(ptr noundef %12)
  br label %13

13:                                               ; preds = %10, %2
  %14 = load ptr, ptr %3, align 8, !tbaa !54
  %15 = load ptr, ptr %4, align 8, !tbaa !3
  %16 = getelementptr inbounds nuw %struct.HMACobject, ptr %15, i32 0, i32 1
  %17 = load ptr, ptr %16, align 8, !tbaa !7
  %18 = call i32 @HMAC_CTX_copy(ptr noundef %14, ptr noundef %17)
  store i32 %18, ptr %5, align 4, !tbaa !19
  %19 = load ptr, ptr %4, align 8, !tbaa !3
  %20 = getelementptr inbounds nuw %struct.HMACobject, ptr %19, i32 0, i32 2
  %21 = load i8, ptr %20, align 8, !tbaa !37, !range !38, !noundef !39
  %22 = trunc i8 %21 to i1
  br i1 %22, label %23, label %26

23:                                               ; preds = %13
  %24 = load ptr, ptr %4, align 8, !tbaa !3
  %25 = getelementptr inbounds nuw %struct.HMACobject, ptr %24, i32 0, i32 3
  call void @_PyMutex_Unlock(ptr noundef %25)
  br label %26

26:                                               ; preds = %23, %13
  %27 = load i32, ptr %5, align 4, !tbaa !19
  call void @llvm.lifetime.end.p0(i64 4, ptr %5) #9
  ret i32 %27
}

; Function Attrs: nounwind uwtable
define internal i32 @_hmac_digest(ptr noundef %0, ptr noundef %1, i32 noundef %2) #0 {
  %4 = alloca i32, align 4
  %5 = alloca ptr, align 8
  %6 = alloca ptr, align 8
  %7 = alloca i32, align 4
  %8 = alloca ptr, align 8
  %9 = alloca i32, align 4
  %10 = alloca i32, align 4
  store ptr %0, ptr %5, align 8, !tbaa !3
  store ptr %1, ptr %6, align 8, !tbaa !21
  store i32 %2, ptr %7, align 4, !tbaa !19
  call void @llvm.lifetime.start.p0(i64 8, ptr %8) #9
  %11 = call ptr @HMAC_CTX_new()
  store ptr %11, ptr %8, align 8, !tbaa !54
  %12 = load ptr, ptr %8, align 8, !tbaa !54
  %13 = icmp eq ptr %12, null
  br i1 %13, label %14, label %16

14:                                               ; preds = %3
  %15 = call ptr @PyErr_NoMemory()
  store i32 0, ptr %4, align 4
  store i32 1, ptr %9, align 4
  br label %36

16:                                               ; preds = %3
  %17 = load ptr, ptr %8, align 8, !tbaa !54
  %18 = load ptr, ptr %5, align 8, !tbaa !3
  %19 = call i32 @locked_HMAC_CTX_copy(ptr noundef %17, ptr noundef %18)
  %20 = icmp ne i32 %19, 0
  br i1 %20, label %24, label %21

21:                                               ; preds = %16
  %22 = load ptr, ptr @PyExc_ValueError, align 8, !tbaa !14
  %23 = call ptr (ptr, ptr, ...) @_setException(ptr noundef %22, ptr noundef null)
  store i32 0, ptr %4, align 4
  store i32 1, ptr %9, align 4
  br label %36

24:                                               ; preds = %16
  call void @llvm.lifetime.start.p0(i64 4, ptr %10) #9
  %25 = load ptr, ptr %8, align 8, !tbaa !54
  %26 = load ptr, ptr %6, align 8, !tbaa !21
  %27 = call i32 @HMAC_Final(ptr noundef %25, ptr noundef %26, ptr noundef %7)
  store i32 %27, ptr %10, align 4, !tbaa !19
  %28 = load ptr, ptr %8, align 8, !tbaa !54
  call void @HMAC_CTX_free(ptr noundef %28)
  %29 = load i32, ptr %10, align 4, !tbaa !19
  %30 = icmp eq i32 %29, 0
  br i1 %30, label %31, label %34

31:                                               ; preds = %24
  %32 = load ptr, ptr @PyExc_ValueError, align 8, !tbaa !14
  %33 = call ptr (ptr, ptr, ...) @_setException(ptr noundef %32, ptr noundef null)
  store i32 0, ptr %4, align 4
  store i32 1, ptr %9, align 4
  br label %35

34:                                               ; preds = %24
  store i32 1, ptr %4, align 4
  store i32 1, ptr %9, align 4
  br label %35

35:                                               ; preds = %34, %31
  call void @llvm.lifetime.end.p0(i64 4, ptr %10) #9
  br label %36

36:                                               ; preds = %35, %21, %14
  call void @llvm.lifetime.end.p0(i64 8, ptr %8) #9
  %37 = load i32, ptr %4, align 4
  ret i32 %37
}