; Function Attrs: nounwind uwtable
define internal fastcc range(i32 0, 2) i32 @_hmac_digest(ptr noundef %0, ptr noundef nonnull %1, i32 noundef range(i32 1, 0) %2) unnamed_addr #0 {
  %4 = alloca i32, align 4
  store i32 %2, ptr %4, align 4, !tbaa !41
  %5 = tail call ptr @HMAC_CTX_new() #9
  %6 = icmp eq ptr %5, null
  br i1 %6, label %7, label %9

7:                                                ; preds = %3
  %8 = tail call ptr @PyErr_NoMemory() #9
  br label %35

9:                                                ; preds = %3
  %10 = getelementptr inbounds nuw i8, ptr %0, i64 24
  %11 = load i8, ptr %10, align 8, !tbaa !25, !range !26, !noundef !27
  %12 = trunc nuw i8 %11 to i1
  br i1 %12, label %13, label %_PyMutex_Lock.exit.i

13:                                               ; preds = %9
  %14 = getelementptr inbounds nuw i8, ptr %0, i64 25
  %15 = cmpxchg ptr %14, i8 0, i8 1 seq_cst seq_cst, align 1
  %16 = extractvalue { i8, i1 } %15, 1
  br i1 %16, label %_PyMutex_Lock.exit.i, label %17

17:                                               ; preds = %13
  tail call void @PyMutex_Lock(ptr noundef nonnull %14) #9
  br label %_PyMutex_Lock.exit.i

_PyMutex_Lock.exit.i:                             ; preds = %17, %13, %9
  %18 = getelementptr inbounds nuw i8, ptr %0, i64 16
  %19 = load ptr, ptr %18, align 8, !tbaa !3
  %20 = tail call i32 @HMAC_CTX_copy(ptr noundef nonnull %5, ptr noundef %19) #9
  %21 = load i8, ptr %10, align 8, !tbaa !25, !range !26, !noundef !27
  %22 = trunc nuw i8 %21 to i1
  br i1 %22, label %23, label %locked_HMAC_CTX_copy.exit

23:                                               ; preds = %_PyMutex_Lock.exit.i
  %24 = getelementptr inbounds nuw i8, ptr %0, i64 25
  %25 = cmpxchg ptr %24, i8 1, i8 0 seq_cst seq_cst, align 1
  %26 = extractvalue { i8, i1 } %25, 1
  br i1 %26, label %locked_HMAC_CTX_copy.exit, label %27

27:                                               ; preds = %23
  tail call void @PyMutex_Unlock(ptr noundef nonnull %24) #9
  br label %locked_HMAC_CTX_copy.exit

locked_HMAC_CTX_copy.exit:                        ; preds = %_PyMutex_Lock.exit.i, %23, %27
  %.not = icmp eq i32 %20, 0
  br i1 %.not, label %28, label %30

28:                                               ; preds = %locked_HMAC_CTX_copy.exit
  %29 = load ptr, ptr @PyExc_ValueError, align 8, !tbaa !23
  tail call void (ptr, ptr, ...) @_setException(ptr noundef %29, ptr noundef null)
  br label %35

30:                                               ; preds = %locked_HMAC_CTX_copy.exit
  %31 = call i32 @HMAC_Final(ptr noundef nonnull %5, ptr noundef nonnull %1, ptr noundef nonnull %4) #9
  call void @HMAC_CTX_free(ptr noundef nonnull %5) #9
  %32 = icmp eq i32 %31, 0
  br i1 %32, label %33, label %35

33:                                               ; preds = %30
  %34 = load ptr, ptr @PyExc_ValueError, align 8, !tbaa !23
  call void (ptr, ptr, ...) @_setException(ptr noundef %34, ptr noundef null)
  br label %35

35:                                               ; preds = %33, %30, %28, %7
  %.0 = phi i32 [ 0, %7 ], [ 0, %28 ], [ 0, %33 ], [ 1, %30 ]
  ret i32 %.0
}